target datalayout = "e-m:e-p270:32:32-p271:32:32-p272:64:64-i64:64-i128:128-f80:128-n8:16:32:64-S128"
target triple = "x86_64-pc-linux-gnu"

%struct.IndexTupleData = type { %struct.ItemPointerData, i16 }
%struct.ItemPointerData = type { %struct.BlockIdData, i16 }
%struct.BlockIdData = type { i16, i16 }

; Function Attrs: inlinehint nounwind uwtable
define internal void @BlockIdSet(ptr noundef %0, i32 noundef %1) #2 {
  %3 = alloca ptr, align 8
  %4 = alloca i32, align 4
  store ptr %0, ptr %3, align 8
  store i32 %1, ptr %4, align 4
  %5 = load i32, ptr %4, align 4
  %6 = lshr i32 %5, 16
  %7 = trunc i32 %6 to i16
  %8 = load ptr, ptr %3, align 8
  %9 = getelementptr inbounds nuw %struct.BlockIdData, ptr %8, i32 0, i32 0
  store i16 %7, ptr %9, align 2
  %10 = load i32, ptr %4, align 4
  %11 = and i32 %10, 65535
  %12 = trunc i32 %11 to i16
  %13 = load ptr, ptr %3, align 8
  %14 = getelementptr inbounds nuw %struct.BlockIdData, ptr %13, i32 0, i32 1
  store i16 %12, ptr %14, align 2
  ret void
}

; Function Attrs: inlinehint nounwind uwtable
define internal i32 @BlockIdGetBlockNumber(ptr noundef %0) #2 {
  %2 = alloca ptr, align 8
  store ptr %0, ptr %2, align 8
  %3 = load ptr, ptr %2, align 8
  %4 = getelementptr inbounds nuw %struct.BlockIdData, ptr %3, i32 0, i32 0
  %5 = load i16, ptr %4, align 2
  %6 = zext i16 %5 to i32
  %7 = shl i32 %6, 16
  %8 = load ptr, ptr %2, align 8
  %9 = getelementptr inbounds nuw %struct.BlockIdData, ptr %8, i32 0, i32 1
  %10 = load i16, ptr %9, align 2
  %11 = zext i16 %10 to i32
  %12 = or i32 %7, %11
  ret i32 %12
}

; Function Attrs: inlinehint nounwind uwtable
define internal void @ItemPointerSetBlockNumber(ptr noundef %0, i32 noundef %1) #2 {
  %3 = alloca ptr, align 8
  %4 = alloca i32, align 4
  store ptr %0, ptr %3, align 8
  store i32 %1, ptr %4, align 4
  %5 = load ptr, ptr %3, align 8
  %6 = getelementptr inbounds nuw %struct.ItemPointerData, ptr %5, i32 0, i32 0
  %7 = load i32, ptr %4, align 4
  call void @BlockIdSet(ptr noundef %6, i32 noundef %7)
  ret void
}

; Function Attrs: inlinehint nounwind uwtable
define internal void @ItemPointerSetOffsetNumber(ptr noundef %0, i16 noundef zeroext %1) #2 {
  %3 = alloca ptr, align 8
  %4 = alloca i16, align 2
  store ptr %0, ptr %3, align 8
  store i16 %1, ptr %4, align 2
  %5 = load i16, ptr %4, align 2
  %6 = load ptr, ptr %3, align 8
  %7 = getelementptr inbounds nuw %struct.ItemPointerData, ptr %6, i32 0, i32 1
  store i16 %5, ptr %7, align 2
  ret void
}

; Function Attrs: inlinehint nounwind uwtable
define internal i32 @ItemPointerGetBlockNumberNoCheck(ptr noundef %0) #2 {
  %2 = alloca ptr, align 8
  store ptr %0, ptr %2, align 8
  %3 = load ptr, ptr %2, align 8
  %4 = getelementptr inbounds nuw %struct.ItemPointerData, ptr %3, i32 0, i32 0
  %5 = call i32 @BlockIdGetBlockNumber(ptr noundef %4)
  ret i32 %5
}

; Function Attrs: inlinehint nounwind uwtable
define internal zeroext i16 @ItemPointerGetOffsetNumberNoCheck(ptr noundef %0) #2 {
  %2 = alloca ptr, align 8
  store ptr %0, ptr %2, align 8
  %3 = load ptr, ptr %2, align 8
  %4 = getelementptr inbounds nuw %struct.ItemPointerData, ptr %3, i32 0, i32 1
  %5 = load i16, ptr %4, align 2
  ret i16 %5
}

; Function Attrs: inlinehint nounwind uwtable
define internal void @ItemPointerCopy(ptr noundef %0, ptr noundef %1) #2 {
  %3 = alloca ptr, align 8
  %4 = alloca ptr, align 8
  store ptr %0, ptr %3, align 8
  store ptr %1, ptr %4, align 8
  %5 = load ptr, ptr %4, align 8
  %6 = load ptr, ptr %3, align 8
  call void @llvm.memcpy.p0.p0.i64(ptr align 2 %5, ptr align 2 %6, i64 6, i1 false)
  ret void
}

; Function Attrs: inlinehint nounwind uwtable
define internal ptr @BTreeTupleGetPosting(ptr noundef %0) #2 {
  %2 = alloca ptr, align 8
  store ptr %0, ptr %2, align 8
  %3 = load ptr, ptr %2, align 8
  %4 = load ptr, ptr %2, align 8
  %5 = call i32 @BTreeTupleGetPostingOffset(ptr noundef %4)
  %6 = zext i32 %5 to i64
  %7 = getelementptr inbounds nuw i8, ptr %3, i64 %6
  ret ptr %7
}

; Function Attrs: inlinehint nounwind uwtable
define internal void @BTreeTupleSetPosting(ptr noundef %0, i16 noundef zeroext %1, i32 noundef %2) #2 {
  %4 = alloca ptr, align 8
  %5 = alloca i16, align 2
  %6 = alloca i32, align 4
  store ptr %0, ptr %4, align 8
  store i16 %1, ptr %5, align 2
  store i32 %2, ptr %6, align 4
  %7 = load ptr, ptr %4, align 8
  %8 = getelementptr inbounds nuw %struct.IndexTupleData, ptr %7, i32 0, i32 1
  %9 = load i16, ptr %8, align 2
  %10 = zext i16 %9 to i32
  %11 = or i32 %10, 8192
  %12 = trunc i32 %11 to i16
  store i16 %12, ptr %8, align 2
  %13 = load ptr, ptr %4, align 8
  %14 = getelementptr inbounds nuw %struct.IndexTupleData, ptr %13, i32 0, i32 0
  %15 = load i16, ptr %5, align 2
  %16 = zext i16 %15 to i32
  %17 = or i32 %16, 8192
  %18 = trunc i32 %17 to i16
  call void @ItemPointerSetOffsetNumber(ptr noundef %14, i16 noundef zeroext %18)
  %19 = load ptr, ptr %4, align 8
  %20 = getelementptr inbounds nuw %struct.IndexTupleData, ptr %19, i32 0, i32 0
  %21 = load i32, ptr %6, align 4
  call void @ItemPointerSetBlockNumber(ptr noundef %20, i32 noundef %21)
  ret void
}

; Function Attrs: inlinehint nounwind uwtable
define internal i64 @IndexTupleSize(ptr noundef %0) #2 {
  %2 = alloca ptr, align 8
  store ptr %0, ptr %2, align 8
  %3 = load ptr, ptr %2, align 8
  %4 = getelementptr inbounds nuw %struct.IndexTupleData, ptr %3, i32 0, i32 1
  %5 = load i16, ptr %4, align 2
  %6 = zext i16 %5 to i32
  %7 = and i32 %6, 8191
  %8 = sext i32 %7 to i64
  ret i64 %8
}

; Function Attrs: inlinehint nounwind uwtable
define internal i32 @BTreeTupleGetPostingOffset(ptr noundef %0) #2 {
  %2 = alloca ptr, align 8
  store ptr %0, ptr %2, align 8
  %3 = load ptr, ptr %2, align 8
  %4 = getelementptr inbounds nuw %struct.IndexTupleData, ptr %3, i32 0, i32 0
  %5 = call i32 @ItemPointerGetBlockNumberNoCheck(ptr noundef %4)
  ret i32 %5
}

; Function Attrs: inlinehint nounwind uwtable
define internal zeroext i1 @BTreeTupleIsPosting(ptr noundef %0) #2 {
  %2 = alloca i1, align 1
  %3 = alloca ptr, align 8
  store ptr %0, ptr %3, align 8
  %4 = load ptr, ptr %3, align 8
  %5 = getelementptr inbounds nuw %struct.IndexTupleData, ptr %4, i32 0, i32 1
  %6 = load i16, ptr %5, align 2
  %7 = zext i16 %6 to i32
  %8 = and i32 %7, 8192
  %9 = icmp eq i32 %8, 0
  br i1 %9, label %10, label %11

10:                                               ; preds = %1
  store i1 false, ptr %2, align 1
  br label %20

11:                                               ; preds = %1
  %12 = load ptr, ptr %3, align 8
  %13 = getelementptr inbounds nuw %struct.IndexTupleData, ptr %12, i32 0, i32 0
  %14 = call zeroext i16 @ItemPointerGetOffsetNumberNoCheck(ptr noundef %13)
  %15 = zext i16 %14 to i32
  %16 = and i32 %15, 8192
  %17 = icmp eq i32 %16, 0
  br i1 %17, label %18, label %19

18:                                               ; preds = %11
  store i1 false, ptr %2, align 1
  br label %20

19:                                               ; preds = %11
  store i1 true, ptr %2, align 1
  br label %20

20:                                               ; preds = %19, %18, %10
  %21 = load i1, ptr %2, align 1
  ret i1 %21
}

; Function Attrs: nounwind uwtable
define dso_local ptr @_bt_form_posting(ptr noundef %0, ptr noundef %1, i32 noundef %2) #0 {
  %4 = alloca ptr, align 8
  %5 = alloca ptr, align 8
  %6 = alloca i32, align 4
  %7 = alloca i32, align 4
  %8 = alloca i32, align 4
  %9 = alloca ptr, align 8
  store ptr %0, ptr %4, align 8
  store ptr %1, ptr %5, align 8
  store i32 %2, ptr %6, align 4
  call void @llvm.lifetime.start.p0(i64 4, ptr %7) #6
  call void @llvm.lifetime.start.p0(i64 4, ptr %8) #6
  call void @llvm.lifetime.start.p0(i64 8, ptr %9) #6
  %10 = load ptr, ptr %4, align 8
  %11 = call zeroext i1 @BTreeTupleIsPosting(ptr noundef %10)
  br i1 %11, label %12, label %15

12:                                               ; preds = %3
  %13 = load ptr, ptr %4, align 8
  %14 = call i32 @BTreeTupleGetPostingOffset(ptr noundef %13)
  store i32 %14, ptr %7, align 4
  br label %19

15:                                               ; preds = %3
  %16 = load ptr, ptr %4, align 8
  %17 = call i64 @IndexTupleSize(ptr noundef %16)
  %18 = trunc i64 %17 to i32
  store i32 %18, ptr %7, align 4
  br label %19

19:                                               ; preds = %15, %12
  %20 = load i32, ptr %6, align 4
  %21 = icmp sgt i32 %20, 1
  br i1 %21, label %22, label %32

22:                                               ; preds = %19
  %23 = load i32, ptr %7, align 4
  %24 = zext i32 %23 to i64
  %25 = load i32, ptr %6, align 4
  %26 = sext i32 %25 to i64
  %27 = mul i64 %26, 6
  %28 = add i64 %24, %27
  %29 = add i64 %28, 7
  %30 = and i64 %29, -8
  %31 = trunc i64 %30 to i32
  store i32 %31, ptr %8, align 4
  br label %34

32:                                               ; preds = %19
  %33 = load i32, ptr %7, align 4
  store i32 %33, ptr %8, align 4
  br label %34

34:                                               ; preds = %32, %22
  %35 = load i32, ptr %8, align 4
  %36 = zext i32 %35 to i64
  %37 = call ptr @palloc0(i64 noundef %36)
  store ptr %37, ptr %9, align 8
  %38 = load ptr, ptr %9, align 8
  %39 = load ptr, ptr %4, align 8
  %40 = load i32, ptr %7, align 4
  %41 = zext i32 %40 to i64
  call void @llvm.memcpy.p0.p0.i64(ptr align 2 %38, ptr align 2 %39, i64 %41, i1 false)
  %42 = load ptr, ptr %9, align 8
  %43 = getelementptr inbounds nuw %struct.IndexTupleData, ptr %42, i32 0, i32 1
  %44 = load i16, ptr %43, align 2
  %45 = zext i16 %44 to i32
  %46 = and i32 %45, -8192
  %47 = trunc i32 %46 to i16
  store i16 %47, ptr %43, align 2
  %48 = load i32, ptr %8, align 4
  %49 = load ptr, ptr %9, align 8
  %50 = getelementptr inbounds nuw %struct.IndexTupleData, ptr %49, i32 0, i32 1
  %51 = load i16, ptr %50, align 2
  %52 = zext i16 %51 to i32
  %53 = or i32 %52, %48
  %54 = trunc i32 %53 to i16
  store i16 %54, ptr %50, align 2
  %55 = load i32, ptr %6, align 4
  %56 = icmp sgt i32 %55, 1
  br i1 %56, label %57, label %68

57:                                               ; preds = %34
  %58 = load ptr, ptr %9, align 8
  %59 = load i32, ptr %6, align 4
  %60 = trunc i32 %59 to i16
  %61 = load i32, ptr %7, align 4
  call void @BTreeTupleSetPosting(ptr noundef %58, i16 noundef zeroext %60, i32 noundef %61)
  %62 = load ptr, ptr %9, align 8
  %63 = call ptr @BTreeTupleGetPosting(ptr noundef %62)
  %64 = load ptr, ptr %5, align 8
  %65 = load i32, ptr %6, align 4
  %66 = sext i32 %65 to i64
  %67 = mul i64 6, %66
  call void @llvm.memcpy.p0.p0.i64(ptr align 2 %63, ptr align 2 %64, i64 %67, i1 false)
  br label %78

68:                                               ; preds = %34
  %69 = load ptr, ptr %9, align 8
  %70 = getelementptr inbounds nuw %struct.IndexTupleData, ptr %69, i32 0, i32 1
  %71 = load i16, ptr %70, align 2
  %72 = zext i16 %71 to i32
  %73 = and i32 %72, -8193
  %74 = trunc i32 %73 to i16
  store i16 %74, ptr %70, align 2
  %75 = load ptr, ptr %5, align 8
  %76 = load ptr, ptr %9, align 8
  %77 = getelementptr inbounds nuw %struct.IndexTupleData, ptr %76, i32 0, i32 0
  call void @ItemPointerCopy(ptr noundef %75, ptr noundef %77)
  br label %78

78:                                               ; preds = %68, %57
  %79 = load ptr, ptr %9, align 8
  call void @llvm.lifetime.end.p0(i64 8, ptr %9) #6
  call void @llvm.lifetime.end.p0(i64 4, ptr %8) #6
  call void @llvm.lifetime.end.p0(i64 4, ptr %7) #6
  ret ptr %79
}