; Function Attrs: nounwind uwtable
define dso_local ptr @_bt_form_posting(ptr noundef readonly captures(none) %0, ptr noundef readonly captures(none) %1, i32 noundef %2) local_unnamed_addr #0 {
  %4 = getelementptr inbounds nuw i8, ptr %0, i64 6
  %5 = load i16, ptr %4, align 2
  %6 = and i16 %5, 8192
  %7 = icmp eq i16 %6, 0
  br i1 %7, label %BTreeTupleIsPosting.exit.thread, label %BTreeTupleIsPosting.exit

BTreeTupleIsPosting.exit:                         ; preds = %3
  %8 = getelementptr i8, ptr %0, i64 4
  %.val.i = load i16, ptr %8, align 2
  %9 = and i16 %.val.i, 8192
  %.not = icmp eq i16 %9, 0
  br i1 %.not, label %BTreeTupleIsPosting.exit.thread, label %10

10:                                               ; preds = %BTreeTupleIsPosting.exit
  %.val26 = load i16, ptr %0, align 2
  %11 = getelementptr i8, ptr %0, i64 2
  %.val27 = load i16, ptr %11, align 2
  %12 = zext i16 %.val26 to i32
  %13 = shl nuw i32 %12, 16
  %14 = zext i16 %.val27 to i32
  %15 = or disjoint i32 %13, %14
  br label %18

BTreeTupleIsPosting.exit.thread:                  ; preds = %3, %BTreeTupleIsPosting.exit
  %16 = and i16 %5, 8191
  %17 = zext nneg i16 %16 to i32
  br label %18

18:                                               ; preds = %BTreeTupleIsPosting.exit.thread, %10
  %.0 = phi i32 [ %15, %10 ], [ %17, %BTreeTupleIsPosting.exit.thread ]
  %19 = icmp sgt i32 %2, 1
  %20 = mul i32 %2, 6
  %21 = add i32 %20, 7
  %22 = add i32 %21, %.0
  %23 = and i32 %22, -8
  %.024 = select i1 %19, i32 %23, i32 %.0
  %24 = zext i32 %.024 to i64
  %25 = tail call ptr @palloc0(i64 noundef %24) #10
  %26 = zext i32 %.0 to i64
  tail call void @llvm.memcpy.p0.p0.i64(ptr align 2 %25, ptr nonnull align 2 %0, i64 %26, i1 false)
  %27 = getelementptr inbounds nuw i8, ptr %25, i64 6
  %28 = load i16, ptr %27, align 2
  %29 = and i16 %28, -8192
  %30 = trunc i32 %.024 to i16
  %31 = or i16 %29, %30
  br i1 %19, label %32, label %44

32:                                               ; preds = %18
  %33 = trunc i32 %2 to i16
  %34 = or i16 %31, 8192
  store i16 %34, ptr %27, align 2
  %35 = or i16 %33, 8192
  %36 = getelementptr inbounds nuw i8, ptr %25, i64 4
  store i16 %35, ptr %36, align 2
  %37 = lshr i32 %.0, 16
  %38 = trunc nuw i32 %37 to i16
  store i16 %38, ptr %25, align 2
  %39 = trunc i32 %.0 to i16
  %40 = getelementptr inbounds nuw i8, ptr %25, i64 2
  store i16 %39, ptr %40, align 2
  %41 = getelementptr inbounds nuw i8, ptr %25, i64 %26
  %42 = zext nneg i32 %2 to i64
  %43 = mul nuw nsw i64 %42, 6
  tail call void @llvm.memcpy.p0.p0.i64(ptr nonnull align 2 %41, ptr align 2 %1, i64 %43, i1 false)
  br label %46

44:                                               ; preds = %18
  %45 = and i16 %31, -8193
  store i16 %45, ptr %27, align 2
  tail call void @llvm.memcpy.p0.p0.i64(ptr noundef nonnull align 2 dereferenceable(6) %25, ptr noundef nonnull readonly align 2 dereferenceable(6) %1, i64 6, i1 false)
  br label %46

46:                                               ; preds = %44, %32
  ret ptr %25
}